; Function Attrs: mustprogress nounwind uwtable
define hidden void @_ZN24external_word_Relocation11unpack_dataEv(ptr nocapture noundef nonnull align 8 dereferenceable(32) %0) unnamed_addr #0 align 2 {
  %2 = getelementptr inbounds i8, ptr %0, i64 8
  %3 = load ptr, ptr %2, align 8
  %4 = getelementptr inbounds i8, ptr %3, i64 48
  %5 = load ptr, ptr %4, align 8
  %6 = getelementptr inbounds i8, ptr %3, i64 56
  %7 = load i16, ptr %6, align 8
  %8 = icmp sgt i16 %7, 1
  br i1 %8, label %9, label %17

9:                                                ; preds = %1
  %10 = load i16, ptr %5, align 2
  %11 = sext i16 %10 to i32
  %12 = shl nsw i32 %11, 16
  %13 = getelementptr inbounds i8, ptr %5, i64 2
  %14 = load i16, ptr %13, align 2
  %15 = zext i16 %14 to i32
  %16 = or disjoint i32 %12, %15
  br label %_ZN10Relocation12unpack_1_intEv.exit

17:                                               ; preds = %1
  %18 = icmp eq i16 %7, 1
  br i1 %18, label %19, label %_ZN10Relocation12unpack_1_intEv.exit

19:                                               ; preds = %17
  %20 = load i16, ptr %5, align 2
  %21 = sext i16 %20 to i32
  br label %_ZN10Relocation12unpack_1_intEv.exit

_ZN10Relocation12unpack_1_intEv.exit:             ; preds = %9, %17, %19
  %22 = phi i32 [ %16, %9 ], [ %21, %19 ], [ 0, %17 ]
  %23 = tail call noundef ptr @_ZN17ExternalsRecorder2atEi(i32 noundef %22) #19
  %24 = getelementptr inbounds i8, ptr %0, i64 24
  store ptr %23, ptr %24, align 8
  ret void
}